; ModuleID = 'source-C-CXX/27/1445.c'
source_filename = "source-C-CXX/27/1445.c"
target datalayout = "e-m:e-p270:32:32-p271:32:32-p272:64:64-i64:64-f80:128-n8:16:32:64-S128"
target triple = "x86_64-pc-linux-gnu"

@.str = private unnamed_addr constant [4 x i8] c"%d,\00", align 1
@.str.1 = private unnamed_addr constant [3 x i8] c"%d\00", align 1

; Function Attrs: nounwind sspstrong uwtable
define dso_local i32 @main() local_unnamed_addr #0 {
  %1 = alloca [3000 x i8], align 16
  %2 = getelementptr inbounds [3000 x i8], [3000 x i8]* %1, i64 0, i64 0
  call void @llvm.lifetime.start.p0i8(i64 3000, i8* nonnull %2) #4
  %3 = call i32 (i8*, ...) bitcast (i32 (...)* @gets to i32 (i8*, ...)*)(i8* nonnull %2) #4
  br label %4

4:                                                ; preds = %23, %0
  %5 = phi i64 [ %25, %23 ], [ 0, %0 ]
  %6 = phi i32 [ %24, %23 ], [ 0, %0 ]
  %7 = getelementptr inbounds [3000 x i8], [3000 x i8]* %1, i64 0, i64 %5
  %8 = load i8, i8* %7, align 1, !tbaa !5
  switch i8 %8, label %9 [
    i8 32, label %11
    i8 0, label %11
  ]

9:                                                ; preds = %4
  %10 = add nsw i32 %6, 1
  br label %23

11:                                               ; preds = %4, %4
  %12 = icmp eq i8 %8, 32
  %13 = icmp ne i32 %6, 0
  %14 = select i1 %12, i1 %13, i1 false
  br i1 %14, label %15, label %17

15:                                               ; preds = %11
  %16 = call i32 (i8*, ...) @printf(i8* nonnull dereferenceable(1) getelementptr inbounds ([4 x i8], [4 x i8]* @.str, i64 0, i64 0), i32 %6)
  br label %23

17:                                               ; preds = %11
  %18 = icmp eq i8 %8, 0
  %19 = icmp ne i32 %6, 0
  %20 = select i1 %18, i1 %19, i1 false
  br i1 %20, label %21, label %23

21:                                               ; preds = %17
  %22 = call i32 (i8*, ...) @printf(i8* nonnull dereferenceable(1) getelementptr inbounds ([3 x i8], [3 x i8]* @.str.1, i64 0, i64 0), i32 %6)
  call void @llvm.lifetime.end.p0i8(i64 3000, i8* nonnull %2) #4
  ret i32 0

23:                                               ; preds = %9, %15, %17
  %24 = phi i32 [ 0, %15 ], [ %6, %17 ], [ %10, %9 ]
  %25 = add nuw i64 %5, 1
  br label %4
}

; Function Attrs: argmemonly mustprogress nofree nosync nounwind willreturn
declare void @llvm.lifetime.start.p0i8(i64 immarg, i8* nocapture) #1

declare i32 @gets(...) local_unnamed_addr #2

; Function Attrs: nofree nounwind
declare noundef i32 @printf(i8* nocapture noundef readonly, ...) local_unnamed_addr #3

; Function Attrs: argmemonly mustprogress nofree nosync nounwind willreturn
declare void @llvm.lifetime.end.p0i8(i64 immarg, i8* nocapture) #1


!llvm.module.flags = !{!0, !1, !2, !3}
!llvm.ident = !{!4}

!0 = !{i32 1, !"wchar_size", i32 4}
!1 = !{i32 7, !"PIC Level", i32 2}
!2 = !{i32 7, !"PIE Level", i32 2}
!3 = !{i32 7, !"uwtable", i32 1}
!4 = !{!"clang version 13.0.0"}
!5 = !{!6, !6, i64 0}
!6 = !{!"omnipotent char", !7, i64 0}
!7 = !{!"Simple C/C++ TBAA"}
